; Function Attrs: nounwind uwtable
define dso_local i64 @make_expanded_record_from_datum(i64 noundef %0, ptr noundef %1) local_unnamed_addr #0 {
  %3 = alloca %struct.HeapTupleData, align 8
  call void @llvm.lifetime.start.p0(i64 24, ptr nonnull %3) #8
  %4 = tail call ptr @AllocSetContextCreateInternal(ptr noundef %1, ptr noundef nonnull @.str.2, i64 noundef 0, i64 noundef 8192, i64 noundef 8388608) #8
  %5 = tail call ptr @MemoryContextAllocZero(ptr noundef %4, i64 noundef 208) #8
  tail call void @EOH_init_header(ptr noundef %5, ptr noundef nonnull @ER_methods, ptr noundef %4) #8
  %6 = getelementptr inbounds nuw i8, ptr %5, i64 48
  store i32 1384727874, ptr %6, align 8
  %7 = inttoptr i64 %0 to ptr
  %8 = tail call ptr @pg_detoast_datum(ptr noundef %7) #8
  %.val = load i32, ptr %8, align 4
  %9 = lshr i32 %.val, 2
  store i32 %9, ptr %3, align 8
  %10 = getelementptr inbounds nuw i8, ptr %3, i64 4
  store i16 -1, ptr %10, align 4
  %11 = getelementptr inbounds nuw i8, ptr %3, i64 6
  store i16 -1, ptr %11, align 2
  %12 = getelementptr inbounds nuw i8, ptr %3, i64 8
  store i16 0, ptr %12, align 8
  %13 = getelementptr inbounds nuw i8, ptr %3, i64 12
  store i32 0, ptr %13, align 4
  %14 = getelementptr inbounds nuw i8, ptr %3, i64 16
  store ptr %8, ptr %14, align 8
  %15 = load ptr, ptr @CurrentMemoryContext, align 8
  store ptr %4, ptr @CurrentMemoryContext, align 8
  %16 = call ptr @heap_copytuple(ptr noundef nonnull %3) #8
  %17 = getelementptr inbounds nuw i8, ptr %5, i64 52
  %18 = load i32, ptr %17, align 4
  %19 = or i32 %18, 2
  store i32 %19, ptr %17, align 4
  store ptr %15, ptr @CurrentMemoryContext, align 8
  %20 = getelementptr i8, ptr %8, i64 8
  %.val24 = load i32, ptr %20, align 4
  %21 = getelementptr inbounds nuw i8, ptr %5, i64 60
  store i32 %.val24, ptr %21, align 4
  %22 = getelementptr inbounds nuw i8, ptr %5, i64 56
  store i32 %.val24, ptr %22, align 8
  %23 = getelementptr i8, ptr %8, i64 4
  %.val25 = load i32, ptr %23, align 4
  %24 = getelementptr inbounds nuw i8, ptr %5, i64 64
  store i32 %.val25, ptr %24, align 8
  %25 = getelementptr inbounds nuw i8, ptr %5, i64 136
  store ptr %16, ptr %25, align 8
  %26 = getelementptr inbounds nuw i8, ptr %16, i64 16
  %27 = load ptr, ptr %26, align 8
  %28 = getelementptr inbounds nuw i8, ptr %5, i64 144
  store ptr %27, ptr %28, align 8
  %29 = load i32, ptr %16, align 8
  %30 = zext i32 %29 to i64
  %31 = getelementptr inbounds nuw i8, ptr %27, i64 %30
  %32 = getelementptr inbounds nuw i8, ptr %5, i64 152
  store ptr %31, ptr %32, align 8
  %33 = or i32 %18, 3
  store i32 %33, ptr %17, align 4
  %34 = getelementptr inbounds nuw i8, ptr %5, i64 24
  %35 = ptrtoint ptr %34 to i64
  call void @llvm.lifetime.end.p0(i64 24, ptr nonnull %3) #8
  ret i64 %35
}